; ModuleID = '38/1433.c'
source_filename = "38/1433.c"
target datalayout = "e-m:e-p270:32:32-p271:32:32-p272:64:64-i64:64-f80:128-n8:16:32:64-S128"
target triple = "x86_64-pc-linux-gnu"

@.str = private unnamed_addr constant [3 x i8] c"%d\00", align 1
@.str.1 = private unnamed_addr constant [4 x i8] c"%lf\00", align 1
@.str.2 = private unnamed_addr constant [6 x i8] c"%.5f\0A\00", align 1

; Function Attrs: noinline nounwind uwtable
define dso_local void @main() #0 {
  %1 = alloca [100 x double*], align 16
  %2 = alloca double*, align 8
  %3 = alloca double, align 8
  %4 = alloca double, align 8
  %5 = alloca i32, align 4
  %6 = alloca i32, align 4
  %7 = alloca i32, align 4
  %8 = alloca i32, align 4
  %9 = call i32 (i8*, ...) @__isoc99_scanf(i8* getelementptr inbounds ([3 x i8], [3 x i8]* @.str, i64 0, i64 0), i32* %5)
  store i32 0, i32* %7, align 4
  br label %10

10:                                               ; preds = %86, %0
  %11 = load i32, i32* %7, align 4
  %12 = load i32, i32* %5, align 4
  %13 = icmp slt i32 %11, %12
  br i1 %13, label %14, label %89

14:                                               ; preds = %10
  store double 0.000000e+00, double* %4, align 8
  store double 0.000000e+00, double* %3, align 8
  %15 = call i32 (i8*, ...) @__isoc99_scanf(i8* getelementptr inbounds ([3 x i8], [3 x i8]* @.str, i64 0, i64 0), i32* %8)
  %16 = call noalias i8* @calloc(i64 150, i64 8) #3
  %17 = bitcast i8* %16 to double*
  %18 = load i32, i32* %7, align 4
  %19 = sext i32 %18 to i64
  %20 = getelementptr inbounds [100 x double*], [100 x double*]* %1, i64 0, i64 %19
  store double* %17, double** %20, align 8
  %21 = load i32, i32* %7, align 4
  %22 = sext i32 %21 to i64
  %23 = getelementptr inbounds [100 x double*], [100 x double*]* %1, i64 0, i64 %22
  %24 = load double*, double** %23, align 8
  store double* %24, double** %2, align 8
  store i32 0, i32* %6, align 4
  br label %25

25:                                               ; preds = %35, %14
  %26 = load i32, i32* %6, align 4
  %27 = load i32, i32* %8, align 4
  %28 = icmp slt i32 %26, %27
  br i1 %28, label %29, label %38

29:                                               ; preds = %25
  %30 = load double*, double** %2, align 8
  %31 = load i32, i32* %6, align 4
  %32 = sext i32 %31 to i64
  %33 = getelementptr inbounds double, double* %30, i64 %32
  %34 = call i32 (i8*, ...) @__isoc99_scanf(i8* getelementptr inbounds ([4 x i8], [4 x i8]* @.str.1, i64 0, i64 0), double* %33)
  br label %35

35:                                               ; preds = %29
  %36 = load i32, i32* %6, align 4
  %37 = add nsw i32 %36, 1
  store i32 %37, i32* %6, align 4
  br label %25

38:                                               ; preds = %25
  store i32 0, i32* %6, align 4
  br label %39

39:                                               ; preds = %51, %38
  %40 = load i32, i32* %6, align 4
  %41 = load i32, i32* %8, align 4
  %42 = icmp slt i32 %40, %41
  br i1 %42, label %43, label %54

43:                                               ; preds = %39
  %44 = load double, double* %3, align 8
  %45 = load double*, double** %2, align 8
  %46 = load i32, i32* %6, align 4
  %47 = sext i32 %46 to i64
  %48 = getelementptr inbounds double, double* %45, i64 %47
  %49 = load double, double* %48, align 8
  %50 = fadd double %44, %49
  store double %50, double* %3, align 8
  br label %51

51:                                               ; preds = %43
  %52 = load i32, i32* %6, align 4
  %53 = add nsw i32 %52, 1
  store i32 %53, i32* %6, align 4
  br label %39

54:                                               ; preds = %39
  %55 = load double, double* %3, align 8
  %56 = load i32, i32* %8, align 4
  %57 = sitofp i32 %56 to double
  %58 = fdiv double %55, %57
  store double %58, double* %3, align 8
  store i32 0, i32* %6, align 4
  br label %59

59:                                               ; preds = %74, %54
  %60 = load i32, i32* %6, align 4
  %61 = load i32, i32* %8, align 4
  %62 = icmp slt i32 %60, %61
  br i1 %62, label %63, label %77

63:                                               ; preds = %59
  %64 = load double, double* %4, align 8
  %65 = load double*, double** %2, align 8
  %66 = load i32, i32* %6, align 4
  %67 = sext i32 %66 to i64
  %68 = getelementptr inbounds double, double* %65, i64 %67
  %69 = load double, double* %68, align 8
  %70 = load double, double* %3, align 8
  %71 = fsub double %69, %70
  %72 = call double @pow(double %71, double 2.000000e+00) #3
  %73 = fadd double %64, %72
  store double %73, double* %4, align 8
  br label %74

74:                                               ; preds = %63
  %75 = load i32, i32* %6, align 4
  %76 = add nsw i32 %75, 1
  store i32 %76, i32* %6, align 4
  br label %59

77:                                               ; preds = %59
  %78 = load double, double* %4, align 8
  %79 = load i32, i32* %8, align 4
  %80 = sitofp i32 %79 to double
  %81 = fdiv double %78, %80
  store double %81, double* %4, align 8
  %82 = load double, double* %4, align 8
  %83 = call double @sqrt(double %82) #3
  store double %83, double* %4, align 8
  %84 = load double, double* %4, align 8
  %85 = call i32 (i8*, ...) @printf(i8* getelementptr inbounds ([6 x i8], [6 x i8]* @.str.2, i64 0, i64 0), double %84)
  br label %86

86:                                               ; preds = %77
  %87 = load i32, i32* %7, align 4
  %88 = add nsw i32 %87, 1
  store i32 %88, i32* %7, align 4
  br label %10

89:                                               ; preds = %10
  ret void
}

declare dso_local i32 @__isoc99_scanf(i8*, ...) #1

; Function Attrs: nounwind
declare dso_local noalias i8* @calloc(i64, i64) #2

; Function Attrs: nounwind
declare dso_local double @pow(double, double) #2

; Function Attrs: nounwind
declare dso_local double @sqrt(double) #2

declare dso_local i32 @printf(i8*, ...) #1


!llvm.module.flags = !{!0}
!llvm.ident = !{!1}

!0 = !{i32 1, !"wchar_size", i32 4}
!1 = !{!"clang version 10.0.0-4ubuntu1 "}
